target datalayout = "e-m:e-p270:32:32-p271:32:32-p272:64:64-i64:64-i128:128-f80:128-n8:16:32:64-S128"
target triple = "x86_64-pc-linux-gnu"

%struct.GetBitContext = type { ptr, ptr, i32, i32, i32 }
%struct.AVChannelLayout = type { i32, i32, %union.anon.0, ptr }
%union.anon.0 = type { i64 }
%struct.AVCodecContext = type { ptr, i32, i32, ptr, i32, i32, ptr, ptr, ptr, i64, i32, i32, ptr, i32, %struct.AVRational, %struct.AVRational, %struct.AVRational, i32, i32, i32, i32, i32, %struct.AVRational, i32, i32, i32, i32, i32, i32, i32, i32, i32, i32, i32, ptr, ptr, i32, float, float, float, float, float, float, float, float, float, i32, i32, i32, i32, i32, i32, i32, i32, i32, i32, i32, i32, ptr, ptr, ptr, i32, i32, i32, i32, i32, i32, i32, i32, i32, i32, %struct.AVChannelLayout, i32, i32, i32, i32, i32, i32, i32, i32, ptr, i32, i32, i32, float, float, i32, i32, i32, i32, i32, ptr, i64, i64, float, float, i32, i32, ptr, ptr, i32, i32, i32, i32, i32, ptr, ptr, ptr, ptr, i32, i32, [8 x i64], i32, i32, i32, i32, i32, i32, i32, ptr, ptr, i32, i32, i32, i32, i32, i32, i32, i32, i32, i32, ptr, ptr, i32, i32, ptr, ptr, ptr, ptr, i32, i32, i64, i32, i32, i64, ptr, i64, ptr, i32, ptr, i32 }
%struct.AVRational = type { i32, i32 }
%struct.MPCContext = type { %struct.BswapDSPContext, %struct.MPADSPContext, i32, i32, i32, i32, i32, i32, i32, [2 x [32 x i32]], [32 x %struct.Band], [2 x [1152 x i32]], i32, i32, ptr, i32, %struct.AVLFG, i32, [4 x i8], [2 x [1024 x i32]], [2 x i32], [8 x i8], [2 x [36 x [32 x i32]]] }
%struct.BswapDSPContext = type { ptr, ptr }
%struct.MPADSPContext = type { ptr, ptr, ptr, ptr, ptr, ptr }
%struct.Band = type { i32, [2 x i32], [2 x i32], [2 x [3 x i32]], [2 x i32] }
%struct.AVLFG = type { [64 x i32], i32 }

@mpc7_decode_init.init_static_once = internal global i32 0, align 4
@.str.2 = private unnamed_addr constant [12 x i8] c"%d channels\00", align 1
@.str.3 = private unnamed_addr constant [32 x i8] c"Too small extradata size (%i)!\0A\00", align 1
@.str.4 = private unnamed_addr constant [20 x i8] c"Too many bands: %i\0A\00", align 1
@.str.5 = private unnamed_addr constant [45 x i8] c"IS: %d, MSS: %d, TG: %d, LFL: %d, bands: %d\0A\00", align 1

; Function Attrs: alwaysinline nounwind willreturn memory(none) uwtable
define internal i32 @av_clip_c(i32 noundef %0, i32 noundef %1, i32 noundef %2) #7 {
  %4 = alloca i32, align 4
  %5 = alloca i32, align 4
  %6 = alloca i32, align 4
  %7 = alloca i32, align 4
  store i32 %0, ptr %5, align 4, !tbaa !52
  store i32 %1, ptr %6, align 4, !tbaa !52
  store i32 %2, ptr %7, align 4, !tbaa !52
  %8 = load i32, ptr %5, align 4, !tbaa !52
  %9 = load i32, ptr %6, align 4, !tbaa !52
  %10 = icmp slt i32 %8, %9
  br i1 %10, label %11, label %13

11:                                               ; preds = %3
  %12 = load i32, ptr %6, align 4, !tbaa !52
  store i32 %12, ptr %4, align 4
  br label %21

13:                                               ; preds = %3
  %14 = load i32, ptr %5, align 4, !tbaa !52
  %15 = load i32, ptr %7, align 4, !tbaa !52
  %16 = icmp sgt i32 %14, %15
  br i1 %16, label %17, label %19

17:                                               ; preds = %13
  %18 = load i32, ptr %7, align 4, !tbaa !52
  store i32 %18, ptr %4, align 4
  br label %21

19:                                               ; preds = %13
  %20 = load i32, ptr %5, align 4, !tbaa !52
  store i32 %20, ptr %4, align 4
  br label %21

21:                                               ; preds = %19, %17, %11
  %22 = load i32, ptr %4, align 4
  ret i32 %22
}

; Function Attrs: alwaysinline nounwind willreturn memory(none) uwtable
define internal i32 @av_bswap32(i32 noundef %0) #7 {
  %2 = alloca i32, align 4
  store i32 %0, ptr %2, align 4, !tbaa !52
  %3 = load i32, ptr %2, align 4, !tbaa !52
  %4 = shl i32 %3, 8
  %5 = and i32 %4, 65280
  %6 = load i32, ptr %2, align 4, !tbaa !52
  %7 = lshr i32 %6, 8
  %8 = and i32 %7, 255
  %9 = or i32 %5, %8
  %10 = shl i32 %9, 16
  %11 = load i32, ptr %2, align 4, !tbaa !52
  %12 = lshr i32 %11, 16
  %13 = shl i32 %12, 8
  %14 = and i32 %13, 65280
  %15 = load i32, ptr %2, align 4, !tbaa !52
  %16 = lshr i32 %15, 16
  %17 = lshr i32 %16, 8
  %18 = and i32 %17, 255
  %19 = or i32 %14, %18
  %20 = or i32 %10, %19
  ret i32 %20
}

; Function Attrs: inlinehint nounwind uwtable
define internal void @skip_bits_long(ptr noundef %0, i32 noundef %1) #5 {
  %3 = alloca ptr, align 8
  %4 = alloca i32, align 4
  store ptr %0, ptr %3, align 8, !tbaa !83
  store i32 %1, ptr %4, align 4, !tbaa !52
  %5 = load i32, ptr %4, align 4, !tbaa !52
  %6 = load ptr, ptr %3, align 8, !tbaa !83
  %7 = getelementptr inbounds nuw %struct.GetBitContext, ptr %6, i32 0, i32 2
  %8 = load i32, ptr %7, align 8, !tbaa !90
  %9 = sub nsw i32 0, %8
  %10 = load ptr, ptr %3, align 8, !tbaa !83
  %11 = getelementptr inbounds nuw %struct.GetBitContext, ptr %10, i32 0, i32 4
  %12 = load i32, ptr %11, align 8, !tbaa !88
  %13 = load ptr, ptr %3, align 8, !tbaa !83
  %14 = getelementptr inbounds nuw %struct.GetBitContext, ptr %13, i32 0, i32 2
  %15 = load i32, ptr %14, align 8, !tbaa !90
  %16 = sub nsw i32 %12, %15
  %17 = call i32 @av_clip_c(i32 noundef %5, i32 noundef %9, i32 noundef %16) #10
  %18 = load ptr, ptr %3, align 8, !tbaa !83
  %19 = getelementptr inbounds nuw %struct.GetBitContext, ptr %18, i32 0, i32 2
  %20 = load i32, ptr %19, align 8, !tbaa !90
  %21 = add nsw i32 %20, %17
  store i32 %21, ptr %19, align 8, !tbaa !90
  ret void
}

; Function Attrs: inlinehint nounwind uwtable
define internal i32 @get_bits(ptr noundef %0, i32 noundef %1) #5 {
  %3 = alloca ptr, align 8
  %4 = alloca i32, align 4
  %5 = alloca i32, align 4
  %6 = alloca i32, align 4
  %7 = alloca i32, align 4
  %8 = alloca i32, align 4
  store ptr %0, ptr %3, align 8, !tbaa !83
  store i32 %1, ptr %4, align 4, !tbaa !52
  call void @llvm.lifetime.start.p0(i64 4, ptr %5) #9
  call void @llvm.lifetime.start.p0(i64 4, ptr %6) #9
  %9 = load ptr, ptr %3, align 8, !tbaa !83
  %10 = getelementptr inbounds nuw %struct.GetBitContext, ptr %9, i32 0, i32 2
  %11 = load i32, ptr %10, align 8, !tbaa !90
  store i32 %11, ptr %6, align 4, !tbaa !52
  call void @llvm.lifetime.start.p0(i64 4, ptr %7) #9
  call void @llvm.lifetime.start.p0(i64 4, ptr %8) #9
  %12 = load ptr, ptr %3, align 8, !tbaa !83
  %13 = getelementptr inbounds nuw %struct.GetBitContext, ptr %12, i32 0, i32 4
  %14 = load i32, ptr %13, align 8, !tbaa !88
  store i32 %14, ptr %8, align 4, !tbaa !52
  %15 = load ptr, ptr %3, align 8, !tbaa !83
  %16 = getelementptr inbounds nuw %struct.GetBitContext, ptr %15, i32 0, i32 0
  %17 = load ptr, ptr %16, align 8, !tbaa !85
  %18 = load i32, ptr %6, align 4, !tbaa !52
  %19 = lshr i32 %18, 3
  %20 = zext i32 %19 to i64
  %21 = getelementptr inbounds nuw i8, ptr %17, i64 %20
  %22 = load i32, ptr %21, align 1, !tbaa !49
  %23 = call i32 @av_bswap32(i32 noundef %22) #10
  %24 = load i32, ptr %6, align 4, !tbaa !52
  %25 = and i32 %24, 7
  %26 = shl i32 %23, %25
  %27 = lshr i32 %26, 0
  store i32 %27, ptr %7, align 4, !tbaa !52
  %28 = load i32, ptr %7, align 4, !tbaa !52
  %29 = load i32, ptr %4, align 4, !tbaa !52
  %30 = sub nsw i32 32, %29
  %31 = lshr i32 %28, %30
  store i32 %31, ptr %5, align 4, !tbaa !52
  %32 = load i32, ptr %8, align 4, !tbaa !52
  %33 = load i32, ptr %6, align 4, !tbaa !52
  %34 = load i32, ptr %4, align 4, !tbaa !52
  %35 = add i32 %33, %34
  %36 = icmp ugt i32 %32, %35
  br i1 %36, label %37, label %41

37:                                               ; preds = %2
  %38 = load i32, ptr %6, align 4, !tbaa !52
  %39 = load i32, ptr %4, align 4, !tbaa !52
  %40 = add i32 %38, %39
  br label %43

41:                                               ; preds = %2
  %42 = load i32, ptr %8, align 4, !tbaa !52
  br label %43

43:                                               ; preds = %41, %37
  %44 = phi i32 [ %40, %37 ], [ %42, %41 ]
  store i32 %44, ptr %6, align 4, !tbaa !52
  %45 = load i32, ptr %6, align 4, !tbaa !52
  %46 = load ptr, ptr %3, align 8, !tbaa !83
  %47 = getelementptr inbounds nuw %struct.GetBitContext, ptr %46, i32 0, i32 2
  store i32 %45, ptr %47, align 8, !tbaa !90
  %48 = load i32, ptr %5, align 4, !tbaa !52
  call void @llvm.lifetime.end.p0(i64 4, ptr %8) #9
  call void @llvm.lifetime.end.p0(i64 4, ptr %7) #9
  call void @llvm.lifetime.end.p0(i64 4, ptr %6) #9
  call void @llvm.lifetime.end.p0(i64 4, ptr %5) #9
  ret i32 %48
}

; Function Attrs: inlinehint nounwind uwtable
define internal i32 @get_bits1(ptr noundef %0) #5 {
  %2 = alloca ptr, align 8
  %3 = alloca i32, align 4
  %4 = alloca i8, align 1
  store ptr %0, ptr %2, align 8, !tbaa !83
  call void @llvm.lifetime.start.p0(i64 4, ptr %3) #9
  %5 = load ptr, ptr %2, align 8, !tbaa !83
  %6 = getelementptr inbounds nuw %struct.GetBitContext, ptr %5, i32 0, i32 2
  %7 = load i32, ptr %6, align 8, !tbaa !90
  store i32 %7, ptr %3, align 4, !tbaa !52
  call void @llvm.lifetime.start.p0(i64 1, ptr %4) #9
  %8 = load ptr, ptr %2, align 8, !tbaa !83
  %9 = getelementptr inbounds nuw %struct.GetBitContext, ptr %8, i32 0, i32 0
  %10 = load ptr, ptr %9, align 8, !tbaa !85
  %11 = load i32, ptr %3, align 4, !tbaa !52
  %12 = lshr i32 %11, 3
  %13 = zext i32 %12 to i64
  %14 = getelementptr inbounds nuw i8, ptr %10, i64 %13
  %15 = load i8, ptr %14, align 1, !tbaa !49
  store i8 %15, ptr %4, align 1, !tbaa !49
  %16 = load i32, ptr %3, align 4, !tbaa !52
  %17 = and i32 %16, 7
  %18 = load i8, ptr %4, align 1, !tbaa !49
  %19 = zext i8 %18 to i32
  %20 = shl i32 %19, %17
  %21 = trunc i32 %20 to i8
  store i8 %21, ptr %4, align 1, !tbaa !49
  %22 = load i8, ptr %4, align 1, !tbaa !49
  %23 = zext i8 %22 to i32
  %24 = ashr i32 %23, 7
  %25 = trunc i32 %24 to i8
  store i8 %25, ptr %4, align 1, !tbaa !49
  %26 = load ptr, ptr %2, align 8, !tbaa !83
  %27 = getelementptr inbounds nuw %struct.GetBitContext, ptr %26, i32 0, i32 2
  %28 = load i32, ptr %27, align 8, !tbaa !90
  %29 = load ptr, ptr %2, align 8, !tbaa !83
  %30 = getelementptr inbounds nuw %struct.GetBitContext, ptr %29, i32 0, i32 4
  %31 = load i32, ptr %30, align 8, !tbaa !88
  %32 = icmp slt i32 %28, %31
  br i1 %32, label %33, label %36

33:                                               ; preds = %1
  %34 = load i32, ptr %3, align 4, !tbaa !52
  %35 = add i32 %34, 1
  store i32 %35, ptr %3, align 4, !tbaa !52
  br label %36

36:                                               ; preds = %33, %1
  %37 = load i32, ptr %3, align 4, !tbaa !52
  %38 = load ptr, ptr %2, align 8, !tbaa !83
  %39 = getelementptr inbounds nuw %struct.GetBitContext, ptr %38, i32 0, i32 2
  store i32 %37, ptr %39, align 8, !tbaa !90
  %40 = load i8, ptr %4, align 1, !tbaa !49
  %41 = zext i8 %40 to i32
  call void @llvm.lifetime.end.p0(i64 1, ptr %4) #9
  call void @llvm.lifetime.end.p0(i64 4, ptr %3) #9
  ret i32 %41
}

; Function Attrs: inlinehint nounwind uwtable
define internal i32 @init_get_bits(ptr noundef %0, ptr noundef %1, i32 noundef %2) #5 {
  %4 = alloca ptr, align 8
  %5 = alloca ptr, align 8
  %6 = alloca i32, align 4
  %7 = alloca i32, align 4
  %8 = alloca i32, align 4
  store ptr %0, ptr %4, align 8, !tbaa !83
  store ptr %1, ptr %5, align 8, !tbaa !31
  store i32 %2, ptr %6, align 4, !tbaa !52
  call void @llvm.lifetime.start.p0(i64 4, ptr %7) #9
  call void @llvm.lifetime.start.p0(i64 4, ptr %8) #9
  store i32 0, ptr %8, align 4, !tbaa !52
  %9 = load i32, ptr %6, align 4, !tbaa !52
  %10 = icmp sge i32 %9, 2147483135
  br i1 %10, label %17, label %11

11:                                               ; preds = %3
  %12 = load i32, ptr %6, align 4, !tbaa !52
  %13 = icmp slt i32 %12, 0
  br i1 %13, label %17, label %14

14:                                               ; preds = %11
  %15 = load ptr, ptr %5, align 8, !tbaa !31
  %16 = icmp ne ptr %15, null
  br i1 %16, label %18, label %17

17:                                               ; preds = %14, %11, %3
  store i32 0, ptr %6, align 4, !tbaa !52
  store ptr null, ptr %5, align 8, !tbaa !31
  store i32 -1094995529, ptr %8, align 4, !tbaa !52
  br label %18

18:                                               ; preds = %17, %14
  %19 = load i32, ptr %6, align 4, !tbaa !52
  %20 = add nsw i32 %19, 7
  %21 = ashr i32 %20, 3
  store i32 %21, ptr %7, align 4, !tbaa !52
  %22 = load ptr, ptr %5, align 8, !tbaa !31
  %23 = load ptr, ptr %4, align 8, !tbaa !83
  %24 = getelementptr inbounds nuw %struct.GetBitContext, ptr %23, i32 0, i32 0
  store ptr %22, ptr %24, align 8, !tbaa !85
  %25 = load i32, ptr %6, align 4, !tbaa !52
  %26 = load ptr, ptr %4, align 8, !tbaa !83
  %27 = getelementptr inbounds nuw %struct.GetBitContext, ptr %26, i32 0, i32 3
  store i32 %25, ptr %27, align 4, !tbaa !87
  %28 = load i32, ptr %6, align 4, !tbaa !52
  %29 = add nsw i32 %28, 8
  %30 = load ptr, ptr %4, align 8, !tbaa !83
  %31 = getelementptr inbounds nuw %struct.GetBitContext, ptr %30, i32 0, i32 4
  store i32 %29, ptr %31, align 8, !tbaa !88
  %32 = load ptr, ptr %5, align 8, !tbaa !31
  %33 = load i32, ptr %7, align 4, !tbaa !52
  %34 = sext i32 %33 to i64
  %35 = getelementptr inbounds i8, ptr %32, i64 %34
  %36 = load ptr, ptr %4, align 8, !tbaa !83
  %37 = getelementptr inbounds nuw %struct.GetBitContext, ptr %36, i32 0, i32 1
  store ptr %35, ptr %37, align 8, !tbaa !89
  %38 = load ptr, ptr %4, align 8, !tbaa !83
  %39 = getelementptr inbounds nuw %struct.GetBitContext, ptr %38, i32 0, i32 2
  store i32 0, ptr %39, align 8, !tbaa !90
  %40 = load i32, ptr %8, align 4, !tbaa !52
  call void @llvm.lifetime.end.p0(i64 4, ptr %8) #9
  call void @llvm.lifetime.end.p0(i64 4, ptr %7) #9
  ret i32 %40
}

; Function Attrs: cold nounwind optsize uwtable
define internal i32 @mpc7_decode_init(ptr noundef %0) #0 {
  %2 = alloca i32, align 4
  %3 = alloca ptr, align 8
  %4 = alloca ptr, align 8
  %5 = alloca %struct.GetBitContext, align 8
  %6 = alloca [16 x i8], align 16
  %7 = alloca ptr, align 8
  %8 = alloca i32, align 4
  %9 = alloca %struct.AVChannelLayout, align 8
  store ptr %0, ptr %3, align 8, !tbaa !4
  call void @llvm.lifetime.start.p0(i64 8, ptr %4) #9
  %10 = load ptr, ptr %3, align 8, !tbaa !4
  %11 = getelementptr inbounds nuw %struct.AVCodecContext, ptr %10, i32 0, i32 6
  %12 = load ptr, ptr %11, align 8, !tbaa !9
  store ptr %12, ptr %4, align 8, !tbaa !29
  call void @llvm.lifetime.start.p0(i64 32, ptr %5) #9
  call void @llvm.lifetime.start.p0(i64 16, ptr %6) #9
  call void @llvm.lifetime.start.p0(i64 8, ptr %7) #9
  %13 = getelementptr inbounds [16 x i8], ptr %6, i64 0, i64 0
  store ptr %13, ptr %7, align 8, !tbaa !31
  %14 = load ptr, ptr %3, align 8, !tbaa !4
  %15 = getelementptr inbounds nuw %struct.AVCodecContext, ptr %14, i32 0, i32 71
  %16 = getelementptr inbounds nuw %struct.AVChannelLayout, ptr %15, i32 0, i32 1
  %17 = load i32, ptr %16, align 4, !tbaa !32
  %18 = icmp ne i32 %17, 2
  br i1 %18, label %19, label %25

19:                                               ; preds = %1
  %20 = load ptr, ptr %3, align 8, !tbaa !4
  %21 = load ptr, ptr %3, align 8, !tbaa !4
  %22 = getelementptr inbounds nuw %struct.AVCodecContext, ptr %21, i32 0, i32 71
  %23 = getelementptr inbounds nuw %struct.AVChannelLayout, ptr %22, i32 0, i32 1
  %24 = load i32, ptr %23, align 4, !tbaa !32
  call void (ptr, ptr, ...) @avpriv_request_sample(ptr noundef %20, ptr noundef @.str.2, i32 noundef %24)
  store i32 -1163346256, ptr %2, align 4
  store i32 1, ptr %8, align 4
  br label %109

25:                                               ; preds = %1
  %26 = load ptr, ptr %3, align 8, !tbaa !4
  %27 = getelementptr inbounds nuw %struct.AVCodecContext, ptr %26, i32 0, i32 13
  %28 = load i32, ptr %27, align 8, !tbaa !33
  %29 = icmp slt i32 %28, 16
  br i1 %29, label %30, label %35

30:                                               ; preds = %25
  %31 = load ptr, ptr %3, align 8, !tbaa !4
  %32 = load ptr, ptr %3, align 8, !tbaa !4
  %33 = getelementptr inbounds nuw %struct.AVCodecContext, ptr %32, i32 0, i32 13
  %34 = load i32, ptr %33, align 8, !tbaa !33
  call void (ptr, i32, ptr, ...) @av_log(ptr noundef %31, i32 noundef 16, ptr noundef @.str.3, i32 noundef %34)
  store i32 -1094995529, ptr %2, align 4
  store i32 1, ptr %8, align 4
  br label %109

35:                                               ; preds = %25
  %36 = load ptr, ptr %4, align 8, !tbaa !29
  %37 = getelementptr inbounds nuw %struct.MPCContext, ptr %36, i32 0, i32 9
  %38 = getelementptr inbounds [2 x [32 x i32]], ptr %37, i64 0, i64 0
  call void @llvm.memset.p0.i64(ptr align 4 %38, i8 0, i64 256, i1 false)
  %39 = load ptr, ptr %4, align 8, !tbaa !29
  %40 = getelementptr inbounds nuw %struct.MPCContext, ptr %39, i32 0, i32 16
  call void @av_lfg_init(ptr noundef %40, i32 noundef -559038737)
  %41 = load ptr, ptr %4, align 8, !tbaa !29
  %42 = getelementptr inbounds nuw %struct.MPCContext, ptr %41, i32 0, i32 0
  call void @ff_bswapdsp_init(ptr noundef %42)
  %43 = load ptr, ptr %4, align 8, !tbaa !29
  %44 = getelementptr inbounds nuw %struct.MPCContext, ptr %43, i32 0, i32 1
  call void @ff_mpadsp_init(ptr noundef %44)
  %45 = load ptr, ptr %4, align 8, !tbaa !29
  %46 = getelementptr inbounds nuw %struct.MPCContext, ptr %45, i32 0, i32 0
  %47 = getelementptr inbounds nuw %struct.BswapDSPContext, ptr %46, i32 0, i32 0
  %48 = load ptr, ptr %47, align 16, !tbaa !34
  %49 = load ptr, ptr %7, align 8, !tbaa !31
  %50 = load ptr, ptr %3, align 8, !tbaa !4
  %51 = getelementptr inbounds nuw %struct.AVCodecContext, ptr %50, i32 0, i32 12
  %52 = load ptr, ptr %51, align 8, !tbaa !39
  call void %48(ptr noundef %49, ptr noundef %52, i32 noundef 4)
  %53 = load ptr, ptr %7, align 8, !tbaa !31
  %54 = call i32 @init_get_bits(ptr noundef %5, ptr noundef %53, i32 noundef 128)
  %55 = call i32 @get_bits1(ptr noundef %5)
  %56 = load ptr, ptr %4, align 8, !tbaa !29
  %57 = getelementptr inbounds nuw %struct.MPCContext, ptr %56, i32 0, i32 2
  store i32 %55, ptr %57, align 16, !tbaa !40
  %58 = call i32 @get_bits1(ptr noundef %5)
  %59 = load ptr, ptr %4, align 8, !tbaa !29
  %60 = getelementptr inbounds nuw %struct.MPCContext, ptr %59, i32 0, i32 3
  store i32 %58, ptr %60, align 4, !tbaa !41
  %61 = call i32 @get_bits(ptr noundef %5, i32 noundef 6)
  %62 = load ptr, ptr %4, align 8, !tbaa !29
  %63 = getelementptr inbounds nuw %struct.MPCContext, ptr %62, i32 0, i32 6
  store i32 %61, ptr %63, align 16, !tbaa !42
  %64 = load ptr, ptr %4, align 8, !tbaa !29
  %65 = getelementptr inbounds nuw %struct.MPCContext, ptr %64, i32 0, i32 6
  %66 = load i32, ptr %65, align 16, !tbaa !42
  %67 = icmp sge i32 %66, 32
  br i1 %67, label %68, label %73

68:                                               ; preds = %35
  %69 = load ptr, ptr %3, align 8, !tbaa !4
  %70 = load ptr, ptr %4, align 8, !tbaa !29
  %71 = getelementptr inbounds nuw %struct.MPCContext, ptr %70, i32 0, i32 6
  %72 = load i32, ptr %71, align 16, !tbaa !42
  call void (ptr, i32, ptr, ...) @av_log(ptr noundef %69, i32 noundef 16, ptr noundef @.str.4, i32 noundef %72)
  store i32 -1094995529, ptr %2, align 4
  store i32 1, ptr %8, align 4
  br label %109

73:                                               ; preds = %35
  call void @skip_bits_long(ptr noundef %5, i32 noundef 88)
  %74 = call i32 @get_bits1(ptr noundef %5)
  %75 = load ptr, ptr %4, align 8, !tbaa !29
  %76 = getelementptr inbounds nuw %struct.MPCContext, ptr %75, i32 0, i32 4
  store i32 %74, ptr %76, align 8, !tbaa !43
  %77 = call i32 @get_bits(ptr noundef %5, i32 noundef 11)
  %78 = load ptr, ptr %4, align 8, !tbaa !29
  %79 = getelementptr inbounds nuw %struct.MPCContext, ptr %78, i32 0, i32 5
  store i32 %77, ptr %79, align 4, !tbaa !44
  %80 = load ptr, ptr %3, align 8, !tbaa !4
  %81 = load ptr, ptr %4, align 8, !tbaa !29
  %82 = getelementptr inbounds nuw %struct.MPCContext, ptr %81, i32 0, i32 2
  %83 = load i32, ptr %82, align 16, !tbaa !40
  %84 = load ptr, ptr %4, align 8, !tbaa !29
  %85 = getelementptr inbounds nuw %struct.MPCContext, ptr %84, i32 0, i32 3
  %86 = load i32, ptr %85, align 4, !tbaa !41
  %87 = load ptr, ptr %4, align 8, !tbaa !29
  %88 = getelementptr inbounds nuw %struct.MPCContext, ptr %87, i32 0, i32 4
  %89 = load i32, ptr %88, align 8, !tbaa !43
  %90 = load ptr, ptr %4, align 8, !tbaa !29
  %91 = getelementptr inbounds nuw %struct.MPCContext, ptr %90, i32 0, i32 5
  %92 = load i32, ptr %91, align 4, !tbaa !44
  %93 = load ptr, ptr %4, align 8, !tbaa !29
  %94 = getelementptr inbounds nuw %struct.MPCContext, ptr %93, i32 0, i32 6
  %95 = load i32, ptr %94, align 16, !tbaa !42
  call void (ptr, i32, ptr, ...) @av_log(ptr noundef %80, i32 noundef 48, ptr noundef @.str.5, i32 noundef %83, i32 noundef %86, i32 noundef %89, i32 noundef %92, i32 noundef %95)
  %96 = load ptr, ptr %4, align 8, !tbaa !29
  %97 = getelementptr inbounds nuw %struct.MPCContext, ptr %96, i32 0, i32 17
  store i32 0, ptr %97, align 8, !tbaa !45
  %98 = load ptr, ptr %3, align 8, !tbaa !4
  %99 = getelementptr inbounds nuw %struct.AVCodecContext, ptr %98, i32 0, i32 70
  store i32 6, ptr %99, align 4, !tbaa !46
  %100 = load ptr, ptr %3, align 8, !tbaa !4
  %101 = getelementptr inbounds nuw %struct.AVCodecContext, ptr %100, i32 0, i32 71
  call void @av_channel_layout_uninit(ptr noundef %101)
  %102 = load ptr, ptr %3, align 8, !tbaa !4
  %103 = getelementptr inbounds nuw %struct.AVCodecContext, ptr %102, i32 0, i32 71
  %104 = getelementptr inbounds nuw %struct.AVChannelLayout, ptr %9, i32 0, i32 0
  store i32 1, ptr %104, align 8, !tbaa !47
  %105 = getelementptr inbounds nuw %struct.AVChannelLayout, ptr %9, i32 0, i32 1
  store i32 2, ptr %105, align 4, !tbaa !48
  %106 = getelementptr inbounds nuw %struct.AVChannelLayout, ptr %9, i32 0, i32 2
  store i64 3, ptr %106, align 8, !tbaa !49
  %107 = getelementptr inbounds nuw %struct.AVChannelLayout, ptr %9, i32 0, i32 3
  store ptr null, ptr %107, align 8, !tbaa !50
  call void @llvm.memcpy.p0.p0.i64(ptr align 8 %103, ptr align 8 %9, i64 24, i1 false), !tbaa.struct !51
  %108 = call i32 @pthread_once(ptr noundef @mpc7_decode_init.init_static_once, ptr noundef @mpc7_init_static)
  store i32 0, ptr %2, align 4
  store i32 1, ptr %8, align 4
  br label %109

109:                                              ; preds = %73, %68, %30, %19
  call void @llvm.lifetime.end.p0(i64 8, ptr %7) #9
  call void @llvm.lifetime.end.p0(i64 16, ptr %6) #9
  call void @llvm.lifetime.end.p0(i64 32, ptr %5) #9
  call void @llvm.lifetime.end.p0(i64 8, ptr %4) #9
  %110 = load i32, ptr %2, align 4
  ret i32 %110
}