; Function Attrs: cold nounwind optsize uwtable
define internal range(i32 -1163346256, 1) i32 @mpc7_decode_init(ptr noundef %0) #0 {
  %2 = alloca [16 x i8], align 16
  %3 = getelementptr inbounds nuw i8, ptr %0, i64 32
  %4 = load ptr, ptr %3, align 8, !tbaa !4
  call void @llvm.lifetime.start.p0(i64 16, ptr nonnull %2) #8
  %5 = getelementptr inbounds nuw i8, ptr %0, i64 352
  %6 = getelementptr inbounds nuw i8, ptr %0, i64 356
  %7 = load i32, ptr %6, align 4, !tbaa !27
  %.not = icmp eq i32 %7, 2
  br i1 %.not, label %9, label %8

8:                                                ; preds = %1
  tail call void (ptr, ptr, ...) @avpriv_request_sample(ptr noundef nonnull %0, ptr noundef nonnull @.str.2, i32 noundef %7) #8
  br label %47

9:                                                ; preds = %1
  %10 = getelementptr inbounds nuw i8, ptr %0, i64 80
  %11 = load i32, ptr %10, align 8, !tbaa !28
  %12 = icmp slt i32 %11, 16
  br i1 %12, label %13, label %14

13:                                               ; preds = %9
  tail call void (ptr, i32, ptr, ...) @av_log(ptr noundef nonnull %0, i32 noundef 16, ptr noundef nonnull @.str.3, i32 noundef %11) #8
  br label %47

14:                                               ; preds = %9
  %15 = getelementptr inbounds nuw i8, ptr %4, i64 92
  tail call void @llvm.memset.p0.i64(ptr noundef nonnull align 4 dereferenceable(256) %15, i8 0, i64 256, i1 false)
  %16 = getelementptr inbounds nuw i8, ptr %4, i64 11252
  tail call void @av_lfg_init(ptr noundef nonnull %16, i32 noundef -559038737) #8
  tail call void @ff_bswapdsp_init(ptr noundef %4) #8
  %17 = getelementptr inbounds nuw i8, ptr %4, i64 16
  tail call void @ff_mpadsp_init(ptr noundef nonnull %17) #8
  %18 = load ptr, ptr %4, align 16, !tbaa !29
  %19 = getelementptr inbounds nuw i8, ptr %0, i64 72
  %20 = load ptr, ptr %19, align 8, !tbaa !34
  call void %18(ptr noundef nonnull %2, ptr noundef %20, i32 noundef 4) #8
  %21 = load i8, ptr %2, align 16, !tbaa !35
  %22 = zext i8 %21 to i32
  %23 = lshr i32 %22, 7
  %24 = getelementptr inbounds nuw i8, ptr %4, i64 64
  store i32 %23, ptr %24, align 16, !tbaa !36
  %25 = lshr i32 %22, 6
  %26 = and i32 %25, 1
  %27 = getelementptr inbounds nuw i8, ptr %4, i64 68
  store i32 %26, ptr %27, align 4, !tbaa !37
  %28 = load i32, ptr %2, align 16, !tbaa !35
  %29 = and i32 %28, 63
  %30 = getelementptr inbounds nuw i8, ptr %4, i64 80
  store i32 %29, ptr %30, align 16, !tbaa !38
  %31 = icmp samesign ugt i32 %29, 31
  br i1 %31, label %32, label %33

32:                                               ; preds = %14
  call void (ptr, i32, ptr, ...) @av_log(ptr noundef nonnull %0, i32 noundef 16, ptr noundef nonnull @.str.4, i32 noundef %29) #8
  br label %47

33:                                               ; preds = %14
  %34 = getelementptr inbounds nuw i8, ptr %2, i64 12
  %35 = load i8, ptr %34, align 4, !tbaa !35
  %36 = lshr i8 %35, 7
  %37 = zext nneg i8 %36 to i32
  %38 = getelementptr inbounds nuw i8, ptr %4, i64 72
  store i32 %37, ptr %38, align 8, !tbaa !39
  %39 = load i32, ptr %34, align 4, !tbaa !35
  %40 = call i32 @llvm.bswap.i32(i32 %39)
  %41 = lshr i32 %40, 20
  %42 = and i32 %41, 2047
  %43 = getelementptr inbounds nuw i8, ptr %4, i64 76
  store i32 %42, ptr %43, align 4, !tbaa !40
  call void (ptr, i32, ptr, ...) @av_log(ptr noundef nonnull %0, i32 noundef 48, ptr noundef nonnull @.str.5, i32 noundef %23, i32 noundef %26, i32 noundef %37, i32 noundef %42, i32 noundef %29) #8
  %44 = getelementptr inbounds nuw i8, ptr %4, i64 11512
  store i32 0, ptr %44, align 8, !tbaa !41
  %45 = getelementptr inbounds nuw i8, ptr %0, i64 348
  store i32 6, ptr %45, align 4, !tbaa !42
  call void @av_channel_layout_uninit(ptr noundef nonnull %5) #8
  store i32 1, ptr %5, align 8, !tbaa !43
  store i32 2, ptr %6, align 4, !tbaa !43
  %.sroa.3.0..sroa_idx = getelementptr inbounds nuw i8, ptr %0, i64 360
  store i64 3, ptr %.sroa.3.0..sroa_idx, align 8, !tbaa !35
  %.sroa.4.0..sroa_idx = getelementptr inbounds nuw i8, ptr %0, i64 368
  store ptr null, ptr %.sroa.4.0..sroa_idx, align 8, !tbaa !44
  %46 = call i32 @pthread_once(ptr noundef nonnull @mpc7_decode_init.init_static_once, ptr noundef nonnull @mpc7_init_static) #8
  br label %47

47:                                               ; preds = %33, %32, %13, %8
  %.0 = phi i32 [ -1163346256, %8 ], [ -1094995529, %13 ], [ -1094995529, %32 ], [ 0, %33 ]
  call void @llvm.lifetime.end.p0(i64 16, ptr nonnull %2) #8
  ret i32 %.0
}